target datalayout = "e-m:e-p270:32:32-p271:32:32-p272:64:64-i64:64-i128:128-f80:128-n8:16:32:64-S128"
target triple = "x86_64-unknown-linux-gnu"

%struct.anon = type { %"class.absl::Mutex", i8, %"class.absl::Mutex", i8, %"class.absl::CondVar" }
%"class.absl::Mutex" = type { %"struct.std::atomic" }
%"struct.std::atomic" = type { %"struct.std::__atomic_base" }
%"struct.std::__atomic_base" = type { i64 }
%"class.absl::CondVar" = type { %"struct.std::atomic" }
%class.anon = type { ptr }
%"class.absl::Condition" = type { [16 x i8], ptr, ptr }
%"class.absl::synchronization_internal::KernelTimeout" = type { i64 }

; Function Attrs: mustprogress nounwind uwtable
define linkonce_odr dso_local void @_ZN4absl24synchronization_internal13KernelTimeoutC2Ev(ptr noundef nonnull align 8 dereferenceable(8) %this) unnamed_addr #7 comdat align 2 {
entry:
  %this.addr = alloca ptr, align 8
  store ptr %this, ptr %this.addr, align 8
  %this1 = load ptr, ptr %this.addr, align 8
  %rep_ = getelementptr inbounds %"class.absl::synchronization_internal::KernelTimeout", ptr %this1, i32 0, i32 0
  store i64 -1, ptr %rep_, align 8
  ret void
}

; Function Attrs: mustprogress uwtable
define linkonce_odr dso_local i64 @_ZN4absl24synchronization_internal13KernelTimeout5NeverEv() #4 comdat align 2 {
entry:
  %retval = alloca %"class.absl::synchronization_internal::KernelTimeout", align 8
  call void @_ZN4absl24synchronization_internal13KernelTimeoutC2Ev(ptr noundef nonnull align 8 dereferenceable(8) %retval)
  %coerce.dive = getelementptr inbounds %"class.absl::synchronization_internal::KernelTimeout", ptr %retval, i32 0, i32 0
  %0 = load i64, ptr %coerce.dive, align 8
  ret i64 %0
}

; Function Attrs: mustprogress uwtable
define linkonce_odr dso_local void @_ZN4absl5Mutex5AwaitERKNS_9ConditionE(ptr noundef nonnull align 8 dereferenceable(8) %this, ptr noundef nonnull align 8 dereferenceable(32) %cond) #4 comdat align 2 {
entry:
  %this.addr = alloca ptr, align 8
  %cond.addr = alloca ptr, align 8
  %agg.tmp = alloca %"class.absl::synchronization_internal::KernelTimeout", align 8
  store ptr %this, ptr %this.addr, align 8
  store ptr %cond, ptr %cond.addr, align 8
  %this1 = load ptr, ptr %this.addr, align 8
  %0 = load ptr, ptr %cond.addr, align 8
  %call = call i64 @_ZN4absl24synchronization_internal13KernelTimeout5NeverEv()
  %coerce.dive = getelementptr inbounds %"class.absl::synchronization_internal::KernelTimeout", ptr %agg.tmp, i32 0, i32 0
  store i64 %call, ptr %coerce.dive, align 8
  %coerce.dive2 = getelementptr inbounds %"class.absl::synchronization_internal::KernelTimeout", ptr %agg.tmp, i32 0, i32 0
  %1 = load i64, ptr %coerce.dive2, align 8
  %call3 = call noundef zeroext i1 @_ZN4absl5Mutex11AwaitCommonERKNS_9ConditionENS_24synchronization_internal13KernelTimeoutE(ptr noundef nonnull align 8 dereferenceable(8) %this1, ptr noundef nonnull align 8 dereferenceable(32) %0, i64 %1)
  ret void
}

; Function Attrs: mustprogress uwtable
define internal void @"_ZZN12_GLOBAL__N_134Mutex_CondVarWaitSignalsAwait_Test8TestBodyEvENK3$_0clEv"(ptr noundef nonnull align 8 dereferenceable(8) %this) #4 align 2 {
entry:
  %this.addr = alloca ptr, align 8
  %ref.tmp = alloca %"class.absl::Condition", align 8
  store ptr %this, ptr %this.addr, align 8
  %this1 = load ptr, ptr %this.addr, align 8
  %0 = getelementptr inbounds %class.anon, ptr %this1, i32 0, i32 0
  %1 = load ptr, ptr %0, align 8
  %release_mu = getelementptr inbounds %struct.anon, ptr %1, i32 0, i32 2
  call void @_ZN4absl5Mutex4LockEv(ptr noundef nonnull align 8 dereferenceable(8) %release_mu)
  %2 = getelementptr inbounds %class.anon, ptr %this1, i32 0, i32 0
  %3 = load ptr, ptr %2, align 8
  %barrier_mu = getelementptr inbounds %struct.anon, ptr %3, i32 0, i32 0
  call void @_ZN4absl5Mutex4LockEv(ptr noundef nonnull align 8 dereferenceable(8) %barrier_mu)
  %4 = getelementptr inbounds %class.anon, ptr %this1, i32 0, i32 0
  %5 = load ptr, ptr %4, align 8
  %barrier = getelementptr inbounds %struct.anon, ptr %5, i32 0, i32 1
  store i8 1, ptr %barrier, align 8
  %6 = getelementptr inbounds %class.anon, ptr %this1, i32 0, i32 0
  %7 = load ptr, ptr %6, align 8
  %barrier_mu2 = getelementptr inbounds %struct.anon, ptr %7, i32 0, i32 0
  call void @_ZN4absl5Mutex6UnlockEv(ptr noundef nonnull align 8 dereferenceable(8) %barrier_mu2)
  %8 = getelementptr inbounds %class.anon, ptr %this1, i32 0, i32 0
  %9 = load ptr, ptr %8, align 8
  %release_mu3 = getelementptr inbounds %struct.anon, ptr %9, i32 0, i32 2
  %10 = getelementptr inbounds %class.anon, ptr %this1, i32 0, i32 0
  %11 = load ptr, ptr %10, align 8
  %release = getelementptr inbounds %struct.anon, ptr %11, i32 0, i32 3
  call void @_ZN4absl9ConditionC1EPKb(ptr noundef nonnull align 8 dereferenceable(32) %ref.tmp, ptr noundef %release)
  call void @_ZN4absl5Mutex5AwaitERKNS_9ConditionE(ptr noundef nonnull align 8 dereferenceable(8) %release_mu3, ptr noundef nonnull align 8 dereferenceable(32) %ref.tmp)
  %12 = getelementptr inbounds %class.anon, ptr %this1, i32 0, i32 0
  %13 = load ptr, ptr %12, align 8
  %released_cv = getelementptr inbounds %struct.anon, ptr %13, i32 0, i32 4
  call void @_ZN4absl7CondVar6SignalEv(ptr noundef nonnull align 8 dereferenceable(8) %released_cv)
  %14 = getelementptr inbounds %class.anon, ptr %this1, i32 0, i32 0
  %15 = load ptr, ptr %14, align 8
  %release_mu4 = getelementptr inbounds %struct.anon, ptr %15, i32 0, i32 2
  call void @_ZN4absl5Mutex6UnlockEv(ptr noundef nonnull align 8 dereferenceable(8) %release_mu4)
  ret void
}

; Function Attrs: mustprogress uwtable
define internal void @"_ZSt13__invoke_implIvRZN12_GLOBAL__N_134Mutex_CondVarWaitSignalsAwait_Test8TestBodyEvE3$_0JEET_St14__invoke_otherOT0_DpOT1_"(ptr noundef nonnull align 8 dereferenceable(8) %__f) #4 {
entry:
  %__f.addr = alloca ptr, align 8
  store ptr %__f, ptr %__f.addr, align 8
  %0 = load ptr, ptr %__f.addr, align 8
  call void @"_ZZN12_GLOBAL__N_134Mutex_CondVarWaitSignalsAwait_Test8TestBodyEvENK3$_0clEv"(ptr noundef nonnull align 8 dereferenceable(8) %0)
  ret void
}

; Function Attrs: mustprogress uwtable
define internal void @"_ZSt8__invokeIRZN12_GLOBAL__N_134Mutex_CondVarWaitSignalsAwait_Test8TestBodyEvE3$_0JEENSt15__invoke_resultIT_JDpT0_EE4typeEOS5_DpOS6_"(ptr noundef nonnull align 8 dereferenceable(8) %__fn) #4 {
entry:
  %__fn.addr = alloca ptr, align 8
  store ptr %__fn, ptr %__fn.addr, align 8
  %0 = load ptr, ptr %__fn.addr, align 8
  call void @"_ZSt13__invoke_implIvRZN12_GLOBAL__N_134Mutex_CondVarWaitSignalsAwait_Test8TestBodyEvE3$_0JEET_St14__invoke_otherOT0_DpOT1_"(ptr noundef nonnull align 8 dereferenceable(8) %0)
  ret void
}

; Function Attrs: mustprogress uwtable
define internal void @"_ZSt6invokeIRZN12_GLOBAL__N_134Mutex_CondVarWaitSignalsAwait_Test8TestBodyEvE3$_0JEENSt13invoke_resultIT_JDpT0_EE4typeEOS5_DpOS6_"(ptr noundef nonnull align 8 dereferenceable(8) %__fn) #4 {
entry:
  %__fn.addr = alloca ptr, align 8
  store ptr %__fn, ptr %__fn.addr, align 8
  %0 = load ptr, ptr %__fn.addr, align 8
  call void @"_ZSt8__invokeIRZN12_GLOBAL__N_134Mutex_CondVarWaitSignalsAwait_Test8TestBodyEvE3$_0JEENSt15__invoke_resultIT_JDpT0_EE4typeEOS5_DpOS6_"(ptr noundef nonnull align 8 dereferenceable(8) %0)
  ret void
}

; Function Attrs: mustprogress nounwind uwtable
define internal noundef ptr @"_ZSt7launderIZN12_GLOBAL__N_134Mutex_CondVarWaitSignalsAwait_Test8TestBodyEvE3$_0EPT_S4_"(ptr noundef %__p) #7 {
entry:
  %__p.addr = alloca ptr, align 8
  store ptr %__p, ptr %__p.addr, align 8
  %0 = load ptr, ptr %__p.addr, align 8
  ret ptr %0
}

; Function Attrs: mustprogress uwtable
define internal void @"_ZN4absl22internal_any_invocable7InvokeRIvRZN12_GLOBAL__N_134Mutex_CondVarWaitSignalsAwait_Test8TestBodyEvE3$_0JEvEEvOT0_DpOT1_"(ptr noundef nonnull align 8 dereferenceable(8) %f) #4 {
entry:
  %f.addr = alloca ptr, align 8
  store ptr %f, ptr %f.addr, align 8
  %0 = load ptr, ptr %f.addr, align 8
  call void @"_ZSt6invokeIRZN12_GLOBAL__N_134Mutex_CondVarWaitSignalsAwait_Test8TestBodyEvE3$_0JEENSt13invoke_resultIT_JDpT0_EE4typeEOS5_DpOS6_"(ptr noundef nonnull align 8 dereferenceable(8) %0)
  ret void
}

; Function Attrs: mustprogress nounwind uwtable
define internal noundef nonnull align 8 dereferenceable(8) ptr @"_ZN4absl22internal_any_invocable20ObjectInLocalStorageIZN12_GLOBAL__N_134Mutex_CondVarWaitSignalsAwait_Test8TestBodyEvE3$_0EERT_PNS0_15TypeErasedStateE"(ptr noundef %state) #7 {
entry:
  %state.addr = alloca ptr, align 8
  store ptr %state, ptr %state.addr, align 8
  %0 = load ptr, ptr %state.addr, align 8
  %call = call noundef ptr @"_ZSt7launderIZN12_GLOBAL__N_134Mutex_CondVarWaitSignalsAwait_Test8TestBodyEvE3$_0EPT_S4_"(ptr noundef %0) #3
  ret ptr %call
}

; Function Attrs: mustprogress uwtable
define internal void @"_ZN4absl22internal_any_invocable12LocalInvokerILb0EvRZN12_GLOBAL__N_134Mutex_CondVarWaitSignalsAwait_Test8TestBodyEvE3$_0JEEET0_PNS0_15TypeErasedStateEDpNS0_18ForwardedParameterIT2_E4typeE"(ptr noundef %state) #4 {
entry:
  %state.addr = alloca ptr, align 8
  %f = alloca ptr, align 8
  store ptr %state, ptr %state.addr, align 8
  %0 = load ptr, ptr %state.addr, align 8
  %call = call noundef nonnull align 8 dereferenceable(8) ptr @"_ZN4absl22internal_any_invocable20ObjectInLocalStorageIZN12_GLOBAL__N_134Mutex_CondVarWaitSignalsAwait_Test8TestBodyEvE3$_0EERT_PNS0_15TypeErasedStateE"(ptr noundef %0)
  store ptr %call, ptr %f, align 8
  %1 = load ptr, ptr %f, align 8
  call void @"_ZN4absl22internal_any_invocable7InvokeRIvRZN12_GLOBAL__N_134Mutex_CondVarWaitSignalsAwait_Test8TestBodyEvE3$_0JEvEEvOT0_DpOT1_"(ptr noundef nonnull align 8 dereferenceable(8) %1)
  ret void
}