; Function Attrs: mustprogress uwtable
define internal void @"_ZN4absl22internal_any_invocable12LocalInvokerILb0EvRZN12_GLOBAL__N_134Mutex_CondVarWaitSignalsAwait_Test8TestBodyEvE3$_0JEEET0_PNS0_15TypeErasedStateEDpNS0_18ForwardedParameterIT2_E4typeE"(ptr nocapture noundef readonly %state) #3 {
entry:
  %ref.tmp.i.i.i.i.i = alloca %"class.absl::Condition", align 8
  call void @llvm.lifetime.start.p0(i64 32, ptr nonnull %ref.tmp.i.i.i.i.i)
  %0 = load ptr, ptr %state, align 8
  %release_mu.i.i.i.i.i = getelementptr inbounds i8, ptr %0, i64 16
  tail call void @_ZN4absl5Mutex4LockEv(ptr noundef nonnull align 8 dereferenceable(8) %release_mu.i.i.i.i.i)
  %1 = load ptr, ptr %state, align 8
  tail call void @_ZN4absl5Mutex4LockEv(ptr noundef nonnull align 8 dereferenceable(8) %1)
  %2 = load ptr, ptr %state, align 8
  %barrier.i.i.i.i.i = getelementptr inbounds i8, ptr %2, i64 8
  store i8 1, ptr %barrier.i.i.i.i.i, align 8
  %3 = load ptr, ptr %state, align 8
  tail call void @_ZN4absl5Mutex6UnlockEv(ptr noundef nonnull align 8 dereferenceable(8) %3)
  %4 = load ptr, ptr %state, align 8
  %release_mu3.i.i.i.i.i = getelementptr inbounds i8, ptr %4, i64 16
  %release.i.i.i.i.i = getelementptr inbounds i8, ptr %4, i64 24
  call void @_ZN4absl9ConditionC1EPKb(ptr noundef nonnull align 8 dereferenceable(32) %ref.tmp.i.i.i.i.i, ptr noundef nonnull %release.i.i.i.i.i)
  %call3.i.i.i.i.i.i = call noundef zeroext i1 @_ZN4absl5Mutex11AwaitCommonERKNS_9ConditionENS_24synchronization_internal13KernelTimeoutE(ptr noundef nonnull align 8 dereferenceable(8) %release_mu3.i.i.i.i.i, ptr noundef nonnull align 8 dereferenceable(32) %ref.tmp.i.i.i.i.i, i64 -1)
  %5 = load ptr, ptr %state, align 8
  %released_cv.i.i.i.i.i = getelementptr inbounds i8, ptr %5, i64 32
  call void @_ZN4absl7CondVar6SignalEv(ptr noundef nonnull align 8 dereferenceable(8) %released_cv.i.i.i.i.i)
  %6 = load ptr, ptr %state, align 8
  %release_mu4.i.i.i.i.i = getelementptr inbounds i8, ptr %6, i64 16
  call void @_ZN4absl5Mutex6UnlockEv(ptr noundef nonnull align 8 dereferenceable(8) %release_mu4.i.i.i.i.i)
  call void @llvm.lifetime.end.p0(i64 32, ptr nonnull %ref.tmp.i.i.i.i.i)
  ret void
}